---
triple:          'arm64-apple-darwin'
binary-path:     '/Users/tahmhd/Downloads/code/Code Forces/1050/output/e'
relocations:
  - { offset: 0x1C996, size: 0x8, addend: 0x0, symName: __ZStL8__ioinit, symObjAddr: 0x80F89, symBinAddr: 0x10000C000, symSize: 0x0 }
  - { offset: 0x1D1D0, size: 0x8, addend: 0x0, symName: __GLOBAL__sub_I_e.cpp, symObjAddr: 0x2648, symBinAddr: 0x100002B90, symSize: 0x14 }
  - { offset: 0x1D1E8, size: 0x8, addend: 0x0, symName: __Z41__static_initialization_and_destruction_0v, symObjAddr: 0x260C, symBinAddr: 0x100002B54, symSize: 0x3C }
  - { offset: 0x1D200, size: 0x8, addend: 0x0, symName: __ZNSt10_Head_baseILm0ERKxLb0EE7_M_headERS2_, symObjAddr: 0x23FC, symBinAddr: 0x100002B3C, symSize: 0x18 }
  - { offset: 0x1D229, size: 0x8, addend: 0x0, symName: __ZNSt11_Tuple_implILm0EJRKxEE7_M_headERS2_, symObjAddr: 0x23E0, symBinAddr: 0x100002B20, symSize: 0x1C }
  - { offset: 0x1D253, size: 0x8, addend: 0x0, symName: __ZSt12__get_helperILm0ERKxJEERT0_RSt11_Tuple_implIXT_EJS2_DpT1_EE, symObjAddr: 0x23C4, symBinAddr: 0x100002B04, symSize: 0x1C }
  - { offset: 0x1D2B9, size: 0x8, addend: 0x0, symName: __ZSt3getILm0EJRKxEERNSt13tuple_elementIXT_ESt5tupleIJDpT0_EEE4typeERS6_, symObjAddr: 0x23A8, symBinAddr: 0x100002AE8, symSize: 0x1C }
  - { offset: 0x1D365, size: 0x8, addend: 0x0, symName: __ZNSt4pairIKxxEC1IJRS0_EJLm0EEJEJEEERSt5tupleIJDpT_EERS4_IJDpT1_EESt12_Index_tupleIJXspT0_EEESD_IJXspT2_EEE, symObjAddr: 0x235C, symBinAddr: 0x100002A9C, symSize: 0x4C }
  - { offset: 0x1D3F8, size: 0x8, addend: 0x0, symName: __ZSt9__fill_a1IPxxEvT_S1_RKT0_, symObjAddr: 0x22FC, symBinAddr: 0x100002A3C, symSize: 0x60 }
  - { offset: 0x1D48D, size: 0x8, addend: 0x0, symName: __ZNK9__gnu_cxx16__aligned_membufISt4pairIKxxEE7_M_addrEv, symObjAddr: 0x22E8, symBinAddr: 0x100002A28, symSize: 0x14 }
  - { offset: 0x1D502, size: 0x8, addend: 0x0, symName: __ZNSt4pairIKxxEC1IJRS0_EJEEESt21piecewise_construct_tSt5tupleIJDpT_EES5_IJDpT0_EE, symObjAddr: 0x22AC, symBinAddr: 0x1000029EC, symSize: 0x3C }
  - { offset: 0x1D57C, size: 0x8, addend: 0x0, symName: __ZNSt11_Tuple_implILm0EJRKxEEC2EOS2_, symObjAddr: 0x2284, symBinAddr: 0x1000029C4, symSize: 0x28 }
  - { offset: 0x1D605, size: 0x8, addend: 0x0, symName: __ZNK9__gnu_cxx16__aligned_membufISt4pairIKxxEE6_M_ptrEv, symObjAddr: 0x2268, symBinAddr: 0x1000029A8, symSize: 0x1C }
  - { offset: 0x1D6B5, size: 0x8, addend: 0x0, symName: __ZNSt5tupleIJRKxEEC1EOS2_, symObjAddr: 0x2240, symBinAddr: 0x100002980, symSize: 0x28 }
  - { offset: 0x1D702, size: 0x8, addend: 0x0, symName: __ZNSt15__new_allocatorISt13_Rb_tree_nodeISt4pairIKxxEEE8allocateEmPKv, symObjAddr: 0x21B0, symBinAddr: 0x1000028F0, symSize: 0x90 }
  - { offset: 0x1D7E6, size: 0x8, addend: 0x0, symName: __ZNKSt10_Select1stISt4pairIKxxEEclERKS2_, symObjAddr: 0x2198, symBinAddr: 0x1000028D8, symSize: 0x18 }
  - { offset: 0x1D821, size: 0x8, addend: 0x0, symName: __ZNKSt13_Rb_tree_nodeISt4pairIKxxEE9_M_valptrEv, symObjAddr: 0x2178, symBinAddr: 0x1000028B8, symSize: 0x20 }
  - { offset: 0x1D8E9, size: 0x8, addend: 0x0, symName: __ZNSt15__new_allocatorISt13_Rb_tree_nodeISt4pairIKxxEEE10deallocateEPS4_m, symObjAddr: 0x213C, symBinAddr: 0x10000287C, symSize: 0x3C }
  - { offset: 0x1D9A8, size: 0x8, addend: 0x0, symName: __ZSt10_ConstructIxJEEvPT_DpOT0_, symObjAddr: 0x20F0, symBinAddr: 0x100002830, symSize: 0x4C }
  - { offset: 0x1DA0A, size: 0x8, addend: 0x0, symName: __ZNSt15__new_allocatorIxE8allocateEmPKv, symObjAddr: 0x2074, symBinAddr: 0x1000027B4, symSize: 0x7C }
  - { offset: 0x1DA92, size: 0x8, addend: 0x0, symName: __ZNSt9__rb_tree12_Node_traitsISt4pairIKxxEPS3_E23_S_insert_and_rebalanceEbPSt18_Rb_tree_node_baseS7_RS6_, symObjAddr: 0x203C, symBinAddr: 0x10000277C, symSize: 0x38 }
  - { offset: 0x1DB44, size: 0x8, addend: 0x0, symName: __ZNSt8_Rb_treeIxSt4pairIKxxESt10_Select1stIS2_ESt4lessIxESaIS2_EE6_S_keyERKSt13_Rb_tree_nodeIS2_E, symObjAddr: 0x2014, symBinAddr: 0x100002754, symSize: 0x28 }
  - { offset: 0x1DB72, size: 0x8, addend: 0x0, symName: __ZNSt8_Rb_treeIxSt4pairIKxxESt10_Select1stIS2_ESt4lessIxESaIS2_EE17_M_construct_nodeIJRKSt21piecewise_construct_tSt5tupleIJRS1_EESD_IJEEEEEvPSt13_Rb_tree_nodeIS2_EDpOT_, symObjAddr: 0x1E44, symBinAddr: 0x100002584, symSize: 0x1D0 }
  - { offset: 0x1DDC2, size: 0x8, addend: 0x0, symName: __ZNSt8_Rb_treeIxSt4pairIKxxESt10_Select1stIS2_ESt4lessIxESaIS2_EE11_M_get_nodeEv, symObjAddr: 0x1E08, symBinAddr: 0x100002548, symSize: 0x3C }
  - { offset: 0x1DE15, size: 0x8, addend: 0x0, symName: __ZNSt8_Rb_treeIxSt4pairIKxxESt10_Select1stIS2_ESt4lessIxESaIS2_EE7_S_leftEPSt18_Rb_tree_node_base, symObjAddr: 0x1DF0, symBinAddr: 0x100002530, symSize: 0x18 }
  - { offset: 0x1DEA2, size: 0x8, addend: 0x0, symName: __ZNSt8_Rb_treeIxSt4pairIKxxESt10_Select1stIS2_ESt4lessIxESaIS2_EE21_M_get_Node_allocatorEv, symObjAddr: 0x1DDC, symBinAddr: 0x10000251C, symSize: 0x14 }
  - { offset: 0x1DEC8, size: 0x8, addend: 0x0, symName: __ZNSt27__uninitialized_default_n_1ILb1EE18__uninit_default_nIPxmEET_S3_T0_, symObjAddr: 0x1CE8, symBinAddr: 0x100002428, symSize: 0xF4 }
  - { offset: 0x1E039, size: 0x8, addend: 0x0, symName: __ZNSt15__new_allocatorIxE10deallocateEPxm, symObjAddr: 0x1CB8, symBinAddr: 0x1000023F8, symSize: 0x30 }
  - { offset: 0x1E0C1, size: 0x8, addend: 0x0, symName: __ZN9__gnu_cxx16__aligned_membufISt4pairIKxxEE7_M_addrEv, symObjAddr: 0x1CA4, symBinAddr: 0x1000023E4, symSize: 0x14 }
  - { offset: 0x1E0EB, size: 0x8, addend: 0x0, symName: __ZNSt8_Rb_treeIxSt4pairIKxxESt10_Select1stIS2_ESt4lessIxESaIS2_EE14_M_insert_nodeEPSt18_Rb_tree_node_baseSA_PSt13_Rb_tree_nodeIS2_E, symObjAddr: 0x1BC8, symBinAddr: 0x100002308, symSize: 0xDC }
  - { offset: 0x1E166, size: 0x8, addend: 0x0, symName: __ZNSt8_Rb_treeIxSt4pairIKxxESt10_Select1stIS2_ESt4lessIxESaIS2_EE6_S_keyEPSt13_Rb_tree_nodeIS2_E, symObjAddr: 0x1BAC, symBinAddr: 0x1000022EC, symSize: 0x1C }
  - { offset: 0x1E1DC, size: 0x8, addend: 0x0, symName: __ZNSt4pairIPSt18_Rb_tree_node_baseS1_EC1IRS1_S1_Lb1EEEOT_OT0_, symObjAddr: 0x1B60, symBinAddr: 0x1000022A0, symSize: 0x4C }
  - { offset: 0x1E26A, size: 0x8, addend: 0x0, symName: __ZNSt8_Rb_treeIxSt4pairIKxxESt10_Select1stIS2_ESt4lessIxESaIS2_EE8_S_rightEPSt18_Rb_tree_node_base, symObjAddr: 0x1B48, symBinAddr: 0x100002288, symSize: 0x18 }
  - { offset: 0x1E298, size: 0x8, addend: 0x0, symName: __ZNSt17_Rb_tree_iteratorISt4pairIKxxEEmmEv, symObjAddr: 0x1B18, symBinAddr: 0x100002258, symSize: 0x30 }
  - { offset: 0x1E30A, size: 0x8, addend: 0x0, symName: __ZNSt4pairIPSt18_Rb_tree_node_baseS1_EC1IRS1_S4_Lb1EEEOT_OT0_, symObjAddr: 0x1ACC, symBinAddr: 0x10000220C, symSize: 0x4C }
  - { offset: 0x1E39C, size: 0x8, addend: 0x0, symName: __ZNSt8_Rb_treeIxSt4pairIKxxESt10_Select1stIS2_ESt4lessIxESaIS2_EE11_M_leftmostEv, symObjAddr: 0x1AB4, symBinAddr: 0x1000021F4, symSize: 0x18 }
  - { offset: 0x1E3C6, size: 0x8, addend: 0x0, symName: __ZNSt8_Rb_treeIxSt4pairIKxxESt10_Select1stIS2_ESt4lessIxESaIS2_EE24_M_get_insert_unique_posERS1_, symObjAddr: 0x195C, symBinAddr: 0x10000209C, symSize: 0x158 }
  - { offset: 0x1E492, size: 0x8, addend: 0x0, symName: __ZNSt4pairIPSt18_Rb_tree_node_baseS1_EC1IS1_RS1_Lb1EEEOT_OT0_, symObjAddr: 0x1910, symBinAddr: 0x100002050, symSize: 0x4C }
  - { offset: 0x1E520, size: 0x8, addend: 0x0, symName: __ZNSt8_Rb_treeIxSt4pairIKxxESt10_Select1stIS2_ESt4lessIxESaIS2_EE6_S_keyEPSt18_Rb_tree_node_base, symObjAddr: 0x18F4, symBinAddr: 0x100002034, symSize: 0x1C }
  - { offset: 0x1E54E, size: 0x8, addend: 0x0, symName: __ZNSt8_Rb_treeIxSt4pairIKxxESt10_Select1stIS2_ESt4lessIxESaIS2_EE12_M_rightmostEv, symObjAddr: 0x18DC, symBinAddr: 0x10000201C, symSize: 0x18 }
  - { offset: 0x1E578, size: 0x8, addend: 0x0, symName: __ZNKSt8_Rb_treeIxSt4pairIKxxESt10_Select1stIS2_ESt4lessIxESaIS2_EE4sizeEv, symObjAddr: 0x18C4, symBinAddr: 0x100002004, symSize: 0x18 }
  - { offset: 0x1E5A2, size: 0x8, addend: 0x0, symName: __ZNSt8_Rb_treeIxSt4pairIKxxESt10_Select1stIS2_ESt4lessIxESaIS2_EE14_M_create_nodeIJRKSt21piecewise_construct_tSt5tupleIJRS1_EESD_IJEEEEEPSt13_Rb_tree_nodeIS2_EDpOT_, symObjAddr: 0x1858, symBinAddr: 0x100001F98, symSize: 0x6C }
  - { offset: 0x1E6AB, size: 0x8, addend: 0x0, symName: __ZNSt10_Head_baseILm0ERKxLb0EEC2ES1_, symObjAddr: 0x1834, symBinAddr: 0x100001F74, symSize: 0x24 }
  - { offset: 0x1E6DA, size: 0x8, addend: 0x0, symName: __ZNKSt8_Rb_treeIxSt4pairIKxxESt10_Select1stIS2_ESt4lessIxESaIS2_EE8_M_beginEv, symObjAddr: 0x181C, symBinAddr: 0x100001F5C, symSize: 0x18 }
  - { offset: 0x1E704, size: 0x8, addend: 0x0, symName: __ZNKSt8_Rb_treeIxSt4pairIKxxESt10_Select1stIS2_ESt4lessIxESaIS2_EE14_M_lower_boundEPSt18_Rb_tree_node_baseSA_RS1_, symObjAddr: 0x178C, symBinAddr: 0x100001ECC, symSize: 0x90 }
  - { offset: 0x1E761, size: 0x8, addend: 0x0, symName: __ZNSt8_Rb_treeIxSt4pairIKxxESt10_Select1stIS2_ESt4lessIxESaIS2_EE11_M_put_nodeEPSt13_Rb_tree_nodeIS2_E, symObjAddr: 0x1740, symBinAddr: 0x100001E80, symSize: 0x4C }
  - { offset: 0x1E7D2, size: 0x8, addend: 0x0, symName: __ZNSt8_Rb_treeIxSt4pairIKxxESt10_Select1stIS2_ESt4lessIxESaIS2_EE15_M_destroy_nodeEPSt13_Rb_tree_nodeIS2_E, symObjAddr: 0x16E8, symBinAddr: 0x100001E28, symSize: 0x58 }
  - { offset: 0x1E863, size: 0x8, addend: 0x0, symName: __ZSt25__uninitialized_default_nIPxmET_S1_T0_, symObjAddr: 0x16BC, symBinAddr: 0x100001DFC, symSize: 0x2C }
  - { offset: 0x1E8F7, size: 0x8, addend: 0x0, symName: __ZNSt12_Vector_baseIxSaIxEE11_M_allocateEm, symObjAddr: 0x166C, symBinAddr: 0x100001DAC, symSize: 0x50 }
  - { offset: 0x1E979, size: 0x8, addend: 0x0, symName: __ZNSt12_Vector_baseIxSaIxEE17_Vector_impl_dataC2Ev, symObjAddr: 0x1640, symBinAddr: 0x100001D80, symSize: 0x2C }
  - { offset: 0x1E9D0, size: 0x8, addend: 0x0, symName: __ZN9__gnu_cxx16__aligned_membufISt4pairIKxxEE6_M_ptrEv, symObjAddr: 0x1624, symBinAddr: 0x100001D64, symSize: 0x1C }
  - { offset: 0x1E9FA, size: 0x8, addend: 0x0, symName: __ZNKSt8_Rb_treeIxSt4pairIKxxESt10_Select1stIS2_ESt4lessIxESaIS2_EE6_M_endEv, symObjAddr: 0x1604, symBinAddr: 0x100001D44, symSize: 0x20 }
  - { offset: 0x1EA4C, size: 0x8, addend: 0x0, symName: __ZNSt17_Rb_tree_iteratorISt4pairIKxxEEC1EPSt18_Rb_tree_node_base, symObjAddr: 0x15E0, symBinAddr: 0x100001D20, symSize: 0x24 }
  - { offset: 0x1EA7B, size: 0x8, addend: 0x0, symName: __ZNSt8_Rb_treeIxSt4pairIKxxESt10_Select1stIS2_ESt4lessIxESaIS2_EE10_Auto_node9_M_insertES0_IPSt18_Rb_tree_node_baseSB_E, symObjAddr: 0x1594, symBinAddr: 0x100001CD4, symSize: 0x4C }
  - { offset: 0x1EAC7, size: 0x8, addend: 0x0, symName: __ZNKSt8_Rb_treeIxSt4pairIKxxESt10_Select1stIS2_ESt4lessIxESaIS2_EE10_Auto_node6_M_keyEv, symObjAddr: 0x1574, symBinAddr: 0x100001CB4, symSize: 0x20 }
  - { offset: 0x1EAF1, size: 0x8, addend: 0x0, symName: __ZNSt8_Rb_treeIxSt4pairIKxxESt10_Select1stIS2_ESt4lessIxESaIS2_EE29_M_get_insert_hint_unique_posESt23_Rb_tree_const_iteratorIS2_ERS1_, symObjAddr: 0x1254, symBinAddr: 0x100001994, symSize: 0x320 }
  - { offset: 0x1EBA4, size: 0x8, addend: 0x0, symName: __ZNSt8_Rb_treeIxSt4pairIKxxESt10_Select1stIS2_ESt4lessIxESaIS2_EE10_Auto_nodeD1Ev, symObjAddr: 0x1210, symBinAddr: 0x100001950, symSize: 0x44 }
  - { offset: 0x1EC21, size: 0x8, addend: 0x0, symName: __ZNSt8_Rb_treeIxSt4pairIKxxESt10_Select1stIS2_ESt4lessIxESaIS2_EE10_Auto_nodeC1IJRKSt21piecewise_construct_tSt5tupleIJRS1_EESE_IJEEEEERS8_DpOT_, symObjAddr: 0x1198, symBinAddr: 0x1000018D8, symSize: 0x78 }
  - { offset: 0x1ED8C, size: 0x8, addend: 0x0, symName: __ZNSt11_Tuple_implILm0EJRKxEEC2ES1_, symObjAddr: 0x1170, symBinAddr: 0x1000018B0, symSize: 0x28 }
  - { offset: 0x1EDBB, size: 0x8, addend: 0x0, symName: __ZNKSt8_Rb_treeIxSt4pairIKxxESt10_Select1stIS2_ESt4lessIxESaIS2_EE8key_compEv, symObjAddr: 0x1158, symBinAddr: 0x100001898, symSize: 0x18 }
  - { offset: 0x1EDE5, size: 0x8, addend: 0x0, symName: __ZNSt8_Rb_treeIxSt4pairIKxxESt10_Select1stIS2_ESt4lessIxESaIS2_EE11lower_boundERS1_, symObjAddr: 0x1100, symBinAddr: 0x100001840, symSize: 0x58 }
  - { offset: 0x1EE20, size: 0x8, addend: 0x0, symName: __ZNSt13_Rb_tree_nodeISt4pairIKxxEE11_M_node_ptrEv, symObjAddr: 0x10EC, symBinAddr: 0x10000182C, symSize: 0x14 }
  - { offset: 0x1EE4A, size: 0x8, addend: 0x0, symName: __ZNSt8_Rb_treeIxSt4pairIKxxESt10_Select1stIS2_ESt4lessIxESaIS2_EE12_M_drop_nodeEPSt13_Rb_tree_nodeIS2_E, symObjAddr: 0x10B8, symBinAddr: 0x1000017F8, symSize: 0x34 }
  - { offset: 0x1EE81, size: 0x8, addend: 0x0, symName: __ZNSt8_Rb_treeIxSt4pairIKxxESt10_Select1stIS2_ESt4lessIxESaIS2_EE7_S_leftEPSt13_Rb_tree_nodeIS2_E, symObjAddr: 0x1080, symBinAddr: 0x1000017C0, symSize: 0x38 }
  - { offset: 0x1EEAB, size: 0x8, addend: 0x0, symName: __ZNSt8_Rb_treeIxSt4pairIKxxESt10_Select1stIS2_ESt4lessIxESaIS2_EE8_S_rightEPSt13_Rb_tree_nodeIS2_E, symObjAddr: 0x1048, symBinAddr: 0x100001788, symSize: 0x38 }
  - { offset: 0x1EEEB, size: 0x8, addend: 0x0, symName: __ZSt8_DestroyIPxEvT_S1_, symObjAddr: 0x1030, symBinAddr: 0x100001770, symSize: 0x18 }
  - { offset: 0x1EF2D, size: 0x8, addend: 0x0, symName: __ZSt27__uninitialized_default_n_aIPxmxET_S1_T0_RSaIT1_E, symObjAddr: 0x1008, symBinAddr: 0x100001748, symSize: 0x28 }
  - { offset: 0x1EF90, size: 0x8, addend: 0x0, symName: __ZNSt12_Vector_baseIxSaIxEE13_M_deallocateEPxm, symObjAddr: 0xFB0, symBinAddr: 0x1000016F0, symSize: 0x58 }
  - { offset: 0x1F012, size: 0x8, addend: 0x0, symName: __ZNSt12_Vector_baseIxSaIxEE17_M_create_storageEm, symObjAddr: 0xF50, symBinAddr: 0x100001690, symSize: 0x60 }
  - { offset: 0x1F074, size: 0x8, addend: 0x0, symName: __ZNSt12_Vector_baseIxSaIxEE12_Vector_implC1ERKS0_, symObjAddr: 0xF04, symBinAddr: 0x100001644, symSize: 0x4C }
  - { offset: 0x1F11A, size: 0x8, addend: 0x0, symName: __ZNSt6vectorIxSaIxEE11_S_max_sizeERKS0_, symObjAddr: 0xEB0, symBinAddr: 0x1000015F0, symSize: 0x54 }
  - { offset: 0x1F1D5, size: 0x8, addend: 0x0, symName: __ZNSt13_Rb_tree_nodeISt4pairIKxxEE9_M_valptrEv, symObjAddr: 0xE90, symBinAddr: 0x1000015D0, symSize: 0x20 }
  - { offset: 0x1F1FF, size: 0x8, addend: 0x0, symName: __ZNSt8_Rb_treeIxSt4pairIKxxESt10_Select1stIS2_ESt4lessIxESaIS2_EE3endEv, symObjAddr: 0xE64, symBinAddr: 0x1000015A4, symSize: 0x2C }
  - { offset: 0x1F229, size: 0x8, addend: 0x0, symName: __ZNSt8_Rb_treeIxSt4pairIKxxESt10_Select1stIS2_ESt4lessIxESaIS2_EE5beginEv, symObjAddr: 0xE3C, symBinAddr: 0x10000157C, symSize: 0x28 }
  - { offset: 0x1F253, size: 0x8, addend: 0x0, symName: __ZNSt8_Rb_treeIxSt4pairIKxxESt10_Select1stIS2_ESt4lessIxESaIS2_EE22_M_emplace_hint_uniqueIJRKSt21piecewise_construct_tSt5tupleIJRS1_EESD_IJEEEEESt17_Rb_tree_iteratorIS2_ESt23_Rb_tree_const_iteratorIS2_EDpOT_, symObjAddr: 0xD64, symBinAddr: 0x1000014A4, symSize: 0xD8 }
  - { offset: 0x1F384, size: 0x8, addend: 0x0, symName: __ZNSt23_Rb_tree_const_iteratorISt4pairIKxxEEC1ERKSt17_Rb_tree_iteratorIS2_E, symObjAddr: 0xD3C, symBinAddr: 0x10000147C, symSize: 0x28 }
  - { offset: 0x1F3E5, size: 0x8, addend: 0x0, symName: __ZNSt5tupleIJRKxEEC1ILb1ELb1EEES1_, symObjAddr: 0xD14, symBinAddr: 0x100001454, symSize: 0x28 }
  - { offset: 0x1F41E, size: 0x8, addend: 0x0, symName: __ZNKSt4lessIxEclERKxS2_, symObjAddr: 0xCE0, symBinAddr: 0x100001420, symSize: 0x34 }
  - { offset: 0x1F46A, size: 0x8, addend: 0x0, symName: __ZNKSt3mapIxxSt4lessIxESaISt4pairIKxxEEE8key_compEv, symObjAddr: 0xCB4, symBinAddr: 0x1000013F4, symSize: 0x2C }
  - { offset: 0x1F496, size: 0x8, addend: 0x0, symName: __ZSteqRKSt17_Rb_tree_iteratorISt4pairIKxxEES5_, symObjAddr: 0xC84, symBinAddr: 0x1000013C4, symSize: 0x30 }
  - { offset: 0x1F4D5, size: 0x8, addend: 0x0, symName: __ZNSt3mapIxxSt4lessIxESaISt4pairIKxxEEE11lower_boundERS3_, symObjAddr: 0xC60, symBinAddr: 0x1000013A0, symSize: 0x24 }
  - { offset: 0x1F510, size: 0x8, addend: 0x0, symName: __ZNKSt6vectorIxSaIxEE4sizeEv, symObjAddr: 0xC20, symBinAddr: 0x100001360, symSize: 0x40 }
  - { offset: 0x1F54B, size: 0x8, addend: 0x0, symName: __ZNKSt8_Rb_treeIxSt4pairIKxxESt10_Select1stIS2_ESt4lessIxESaIS2_EE13_M_begin_nodeEv, symObjAddr: 0xBE4, symBinAddr: 0x100001324, symSize: 0x3C }
  - { offset: 0x1F586, size: 0x8, addend: 0x0, symName: __ZNSt8_Rb_treeIxSt4pairIKxxESt10_Select1stIS2_ESt4lessIxESaIS2_EE8_M_eraseEPSt13_Rb_tree_nodeIS2_E, symObjAddr: 0xB80, symBinAddr: 0x1000012C0, symSize: 0x64 }
  - { offset: 0x1F5FF, size: 0x8, addend: 0x0, symName: __ZNSt15__new_allocatorISt13_Rb_tree_nodeISt4pairIKxxEEED2Ev, symObjAddr: 0xB6C, symBinAddr: 0x1000012AC, symSize: 0x14 }
  - { offset: 0x1F63F, size: 0x8, addend: 0x0, symName: __ZNSt20_Rb_tree_key_compareISt4lessIxEEC2Ev, symObjAddr: 0xB58, symBinAddr: 0x100001298, symSize: 0x14 }
  - { offset: 0x1F6B6, size: 0x8, addend: 0x0, symName: __ZNSt12_Vector_baseIxSaIxEE19_M_get_Tp_allocatorEv, symObjAddr: 0xB44, symBinAddr: 0x100001284, symSize: 0x14 }
  - { offset: 0x1F6E0, size: 0x8, addend: 0x0, symName: __ZNSt6vectorIxSaIxEE21_M_default_initializeEm, symObjAddr: 0xAF4, symBinAddr: 0x100001234, symSize: 0x50 }
  - { offset: 0x1F735, size: 0x8, addend: 0x0, symName: __ZNSt12_Vector_baseIxSaIxEED2Ev, symObjAddr: 0xAA4, symBinAddr: 0x1000011E4, symSize: 0x50 }
  - { offset: 0x1F791, size: 0x8, addend: 0x0, symName: __ZNSt12_Vector_baseIxSaIxEEC2EmRKS0_, symObjAddr: 0xA50, symBinAddr: 0x100001190, symSize: 0x54 }
  - { offset: 0x1F7E6, size: 0x8, addend: 0x0, symName: __ZNSt12_Vector_baseIxSaIxEE12_Vector_implD1Ev, symObjAddr: 0xA24, symBinAddr: 0x100001164, symSize: 0x2C }
  - { offset: 0x1F82B, size: 0x8, addend: 0x0, symName: __ZNSt6vectorIxSaIxEE17_S_check_init_lenEmRKS0_, symObjAddr: 0x9A0, symBinAddr: 0x1000010E0, symSize: 0x84 }
  - { offset: 0x1F8FB, size: 0x8, addend: 0x0, symName: __ZNSt15__new_allocatorIxED2Ev, symObjAddr: 0x98C, symBinAddr: 0x1000010CC, symSize: 0x14 }
  - { offset: 0x1F93A, size: 0x8, addend: 0x0, symName: __Z5printIxEvRKT_, symObjAddr: 0x954, symBinAddr: 0x100001094, symSize: 0x38 }
  - { offset: 0x1F973, size: 0x8, addend: 0x0, symName: __Z5printIiEvRKT_, symObjAddr: 0x91C, symBinAddr: 0x10000105C, symSize: 0x38 }
  - { offset: 0x1F9A9, size: 0x8, addend: 0x0, symName: __ZNKSt17_Rb_tree_iteratorISt4pairIKxxEEdeEv, symObjAddr: 0x8FC, symBinAddr: 0x10000103C, symSize: 0x20 }
  - { offset: 0x1F9D3, size: 0x8, addend: 0x0, symName: __ZNSt17_Rb_tree_iteratorISt4pairIKxxEEppEv, symObjAddr: 0x8CC, symBinAddr: 0x10000100C, symSize: 0x30 }
  - { offset: 0x1F9F9, size: 0x8, addend: 0x0, symName: __ZStneRKSt17_Rb_tree_iteratorISt4pairIKxxEES5_, symObjAddr: 0x89C, symBinAddr: 0x100000FDC, symSize: 0x30 }
  - { offset: 0x1FA38, size: 0x8, addend: 0x0, symName: __ZNSt3mapIxxSt4lessIxESaISt4pairIKxxEEE3endEv, symObjAddr: 0x880, symBinAddr: 0x100000FC0, symSize: 0x1C }
  - { offset: 0x1FA62, size: 0x8, addend: 0x0, symName: __ZNSt3mapIxxSt4lessIxESaISt4pairIKxxEEE5beginEv, symObjAddr: 0x864, symBinAddr: 0x100000FA4, symSize: 0x1C }
  - { offset: 0x1FA8C, size: 0x8, addend: 0x0, symName: __ZNSt3mapIxxSt4lessIxESaISt4pairIKxxEEEixERS3_, symObjAddr: 0x778, symBinAddr: 0x100000EB8, symSize: 0xEC }
  - { offset: 0x1FAD8, size: 0x8, addend: 0x0, symName: __ZNSt6vectorIxSaIxEEixEm, symObjAddr: 0x6F4, symBinAddr: 0x100000E34, symSize: 0x84 }
  - { offset: 0x1FB48, size: 0x8, addend: 0x0, symName: __ZNSt8_Rb_treeIxSt4pairIKxxESt10_Select1stIS2_ESt4lessIxESaIS2_EED1Ev, symObjAddr: 0x6C0, symBinAddr: 0x100000E00, symSize: 0x34 }
  - { offset: 0x1FB9E, size: 0x8, addend: 0x0, symName: __ZNSt8_Rb_treeIxSt4pairIKxxESt10_Select1stIS2_ESt4lessIxESaIS2_EE13_Rb_tree_implIS6_Lb1EEC1Ev, symObjAddr: 0x67C, symBinAddr: 0x100000DBC, symSize: 0x44 }
  - { offset: 0x1FC25, size: 0x8, addend: 0x0, symName: __ZNSt6vectorIxSaIxEED1Ev, symObjAddr: 0x620, symBinAddr: 0x100000D60, symSize: 0x5C }
  - { offset: 0x1FCB7, size: 0x8, addend: 0x0, symName: __ZNSt6vectorIxSaIxEEC1EmRKS0_, symObjAddr: 0x5B8, symBinAddr: 0x100000CF8, symSize: 0x68 }
  - { offset: 0x1FD1E, size: 0x8, addend: 0x0, symName: _main, symObjAddr: 0x1E4, symBinAddr: 0x100000924, symSize: 0x3D4 }
  - { offset: 0x1FF21, size: 0x8, addend: 0x0, symName: __ZNSt10__pair_getILm1EE5__getIKxxEERT0_RSt4pairIT_S3_E, symObjAddr: 0x1CC, symBinAddr: 0x10000090C, symSize: 0x18 }
  - { offset: 0x1FF5D, size: 0x8, addend: 0x0, symName: __ZSt3getILm1EKxxERNSt13tuple_elementIXT_ESt4pairIT0_T1_EE4typeERS5_, symObjAddr: 0x1B0, symBinAddr: 0x1000008F0, symSize: 0x1C }
  - { offset: 0x1FFA3, size: 0x8, addend: 0x0, symName: __ZNSt10__pair_getILm0EE5__getIKxxEERT_RSt4pairIS3_T0_E, symObjAddr: 0x19C, symBinAddr: 0x1000008DC, symSize: 0x14 }
  - { offset: 0x1FFDF, size: 0x8, addend: 0x0, symName: __ZSt3getILm0EKxxERNSt13tuple_elementIXT_ESt4pairIT0_T1_EE4typeERS5_, symObjAddr: 0x180, symBinAddr: 0x1000008C0, symSize: 0x1C }
  - { offset: 0x20043, size: 0x8, addend: 0x0, symName: __ZNSt3mapIxxSt4lessIxESaISt4pairIKxxEEED1Ev, symObjAddr: 0x160, symBinAddr: 0x1000008A0, symSize: 0x20 }
  - { offset: 0x20083, size: 0x8, addend: 0x0, symName: __ZNSt3mapIxxSt4lessIxESaISt4pairIKxxEEEC1Ev, symObjAddr: 0x140, symBinAddr: 0x100000880, symSize: 0x20 }
  - { offset: 0x200C3, size: 0x8, addend: 0x0, symName: __ZNSt8_Rb_treeIxSt4pairIKxxESt10_Select1stIS2_ESt4lessIxESaIS2_EEC1Ev, symObjAddr: 0x120, symBinAddr: 0x100000860, symSize: 0x20 }
  - { offset: 0x20107, size: 0x8, addend: 0x0, symName: __ZNSt8_Rb_treeIxSt4pairIKxxESt10_Select1stIS2_ESt4lessIxESaIS2_EE13_Rb_tree_implIS6_Lb1EED1Ev, symObjAddr: 0xF4, symBinAddr: 0x100000834, symSize: 0x2C }
  - { offset: 0x20151, size: 0x8, addend: 0x0, symName: __ZNSt15_Rb_tree_header8_M_resetEv, symObjAddr: 0xB8, symBinAddr: 0x1000007F8, symSize: 0x3C }
  - { offset: 0x20195, size: 0x8, addend: 0x0, symName: __ZNSt15_Rb_tree_headerC2Ev, symObjAddr: 0x90, symBinAddr: 0x1000007D0, symSize: 0x28 }
  - { offset: 0x201BB, size: 0x8, addend: 0x0, symName: __ZNKSt18_Rb_tree_node_base11_M_base_ptrEv, symObjAddr: 0x7C, symBinAddr: 0x1000007BC, symSize: 0x14 }
  - { offset: 0x201E1, size: 0x8, addend: 0x0, symName: __ZSt3minImERKT_S2_S2_, symObjAddr: 0x44, symBinAddr: 0x100000784, symSize: 0x38 }
  - { offset: 0x2022A, size: 0x8, addend: 0x0, symName: __ZdlPvS_, symObjAddr: 0x2C, symBinAddr: 0x10000076C, symSize: 0x18 }
  - { offset: 0x20260, size: 0x8, addend: 0x0, symName: __ZnwmPv, symObjAddr: 0x14, symBinAddr: 0x100000754, symSize: 0x18 }
  - { offset: 0x20292, size: 0x8, addend: 0x0, symName: __ZSt17__size_to_integerm, symObjAddr: 0x0, symBinAddr: 0x100000740, symSize: 0x14 }
...
